target datalayout = "e-m:e-p270:32:32-p271:32:32-p272:64:64-i64:64-i128:128-f80:128-n8:16:32:64-S128"
target triple = "x86_64-pc-linux-gnu"

%struct.PACKET = type { ptr, i64 }

@.str.2 = private unnamed_addr constant [24 x i8] c"../openssl/ssl/t1_lib.c\00", align 1

; Function Attrs: inlinehint nounwind uwtable
define internal void @packet_forward(ptr noundef %0, i64 noundef %1) #2 {
  %3 = alloca ptr, align 8
  %4 = alloca i64, align 8
  store ptr %0, ptr %3, align 8, !tbaa !112
  store i64 %1, ptr %4, align 8, !tbaa !3
  %5 = load i64, ptr %4, align 8, !tbaa !3
  %6 = load ptr, ptr %3, align 8, !tbaa !112
  %7 = getelementptr inbounds nuw %struct.PACKET, ptr %6, i32 0, i32 0
  %8 = load ptr, ptr %7, align 8, !tbaa !305
  %9 = getelementptr inbounds nuw i8, ptr %8, i64 %5
  store ptr %9, ptr %7, align 8, !tbaa !305
  %10 = load i64, ptr %4, align 8, !tbaa !3
  %11 = load ptr, ptr %3, align 8, !tbaa !112
  %12 = getelementptr inbounds nuw %struct.PACKET, ptr %11, i32 0, i32 1
  %13 = load i64, ptr %12, align 8, !tbaa !288
  %14 = sub i64 %13, %10
  store i64 %14, ptr %12, align 8, !tbaa !288
  ret void
}

; Function Attrs: inlinehint nounwind uwtable
define internal i32 @PACKET_peek_net_2(ptr noundef %0, ptr noundef %1) #2 {
  %3 = alloca i32, align 4
  %4 = alloca ptr, align 8
  %5 = alloca ptr, align 8
  store ptr %0, ptr %4, align 8, !tbaa !112
  store ptr %1, ptr %5, align 8, !tbaa !151
  %6 = load ptr, ptr %4, align 8, !tbaa !112
  %7 = call i64 @PACKET_remaining(ptr noundef %6)
  %8 = icmp ult i64 %7, 2
  br i1 %8, label %9, label %10

9:                                                ; preds = %2
  store i32 0, ptr %3, align 4
  br label %27

10:                                               ; preds = %2
  %11 = load ptr, ptr %4, align 8, !tbaa !112
  %12 = getelementptr inbounds nuw %struct.PACKET, ptr %11, i32 0, i32 0
  %13 = load ptr, ptr %12, align 8, !tbaa !305
  %14 = load i8, ptr %13, align 1, !tbaa !161
  %15 = zext i8 %14 to i32
  %16 = shl i32 %15, 8
  %17 = load ptr, ptr %5, align 8, !tbaa !151
  store i32 %16, ptr %17, align 4, !tbaa !128
  %18 = load ptr, ptr %4, align 8, !tbaa !112
  %19 = getelementptr inbounds nuw %struct.PACKET, ptr %18, i32 0, i32 0
  %20 = load ptr, ptr %19, align 8, !tbaa !305
  %21 = getelementptr inbounds i8, ptr %20, i64 1
  %22 = load i8, ptr %21, align 1, !tbaa !161
  %23 = zext i8 %22 to i32
  %24 = load ptr, ptr %5, align 8, !tbaa !151
  %25 = load i32, ptr %24, align 4, !tbaa !128
  %26 = or i32 %25, %23
  store i32 %26, ptr %24, align 4, !tbaa !128
  store i32 1, ptr %3, align 4
  br label %27

27:                                               ; preds = %10, %9
  %28 = load i32, ptr %3, align 4
  ret i32 %28
}

; Function Attrs: inlinehint nounwind uwtable
define internal i32 @PACKET_get_net_2(ptr noundef %0, ptr noundef %1) #2 {
  %3 = alloca i32, align 4
  %4 = alloca ptr, align 8
  %5 = alloca ptr, align 8
  store ptr %0, ptr %4, align 8, !tbaa !112
  store ptr %1, ptr %5, align 8, !tbaa !151
  %6 = load ptr, ptr %4, align 8, !tbaa !112
  %7 = load ptr, ptr %5, align 8, !tbaa !151
  %8 = call i32 @PACKET_peek_net_2(ptr noundef %6, ptr noundef %7)
  %9 = icmp ne i32 %8, 0
  br i1 %9, label %11, label %10

10:                                               ; preds = %2
  store i32 0, ptr %3, align 4
  br label %13

11:                                               ; preds = %2
  %12 = load ptr, ptr %4, align 8, !tbaa !112
  call void @packet_forward(ptr noundef %12, i64 noundef 2)
  store i32 1, ptr %3, align 4
  br label %13

13:                                               ; preds = %11, %10
  %14 = load i32, ptr %3, align 4
  ret i32 %14
}

; Function Attrs: inlinehint nounwind uwtable
define internal i64 @PACKET_remaining(ptr noundef %0) #2 {
  %2 = alloca ptr, align 8
  store ptr %0, ptr %2, align 8, !tbaa !112
  %3 = load ptr, ptr %2, align 8, !tbaa !112
  %4 = getelementptr inbounds nuw %struct.PACKET, ptr %3, i32 0, i32 1
  %5 = load i64, ptr %4, align 8, !tbaa !288
  ret i64 %5
}

; Function Attrs: nounwind uwtable
define i32 @tls1_save_u16(ptr noundef %0, ptr noundef %1, ptr noundef %2) #1 {
  %4 = alloca i32, align 4
  %5 = alloca ptr, align 8
  %6 = alloca ptr, align 8
  %7 = alloca ptr, align 8
  %8 = alloca i32, align 4
  %9 = alloca i64, align 8
  %10 = alloca i64, align 8
  %11 = alloca ptr, align 8
  %12 = alloca i32, align 4
  store ptr %0, ptr %5, align 8, !tbaa !112
  store ptr %1, ptr %6, align 8, !tbaa !134
  store ptr %2, ptr %7, align 8, !tbaa !136
  call void @llvm.lifetime.start.p0(i64 4, ptr %8) #8
  call void @llvm.lifetime.start.p0(i64 8, ptr %9) #8
  call void @llvm.lifetime.start.p0(i64 8, ptr %10) #8
  call void @llvm.lifetime.start.p0(i64 8, ptr %11) #8
  %13 = load ptr, ptr %5, align 8, !tbaa !112
  %14 = call i64 @PACKET_remaining(ptr noundef %13)
  store i64 %14, ptr %9, align 8, !tbaa !3
  %15 = load i64, ptr %9, align 8, !tbaa !3
  %16 = icmp eq i64 %15, 0
  br i1 %16, label %21, label %17

17:                                               ; preds = %3
  %18 = load i64, ptr %9, align 8, !tbaa !3
  %19 = and i64 %18, 1
  %20 = icmp ne i64 %19, 0
  br i1 %20, label %21, label %22

21:                                               ; preds = %17, %3
  store i32 0, ptr %4, align 4
  store i32 1, ptr %12, align 4
  br label %63

22:                                               ; preds = %17
  %23 = load i64, ptr %9, align 8, !tbaa !3
  %24 = lshr i64 %23, 1
  store i64 %24, ptr %9, align 8, !tbaa !3
  %25 = load i64, ptr %9, align 8, !tbaa !3
  %26 = mul i64 %25, 2
  %27 = call noalias ptr @CRYPTO_malloc(i64 noundef %26, ptr noundef @.str.2, i32 noundef 3426)
  store ptr %27, ptr %11, align 8, !tbaa !142
  %28 = icmp eq ptr %27, null
  br i1 %28, label %29, label %30

29:                                               ; preds = %22
  store i32 0, ptr %4, align 4
  store i32 1, ptr %12, align 4
  br label %63

30:                                               ; preds = %22
  store i64 0, ptr %10, align 8, !tbaa !3
  br label %31

31:                                               ; preds = %47, %30
  %32 = load i64, ptr %10, align 8, !tbaa !3
  %33 = load i64, ptr %9, align 8, !tbaa !3
  %34 = icmp ult i64 %32, %33
  br i1 %34, label %35, label %39

35:                                               ; preds = %31
  %36 = load ptr, ptr %5, align 8, !tbaa !112
  %37 = call i32 @PACKET_get_net_2(ptr noundef %36, ptr noundef %8)
  %38 = icmp ne i32 %37, 0
  br label %39

39:                                               ; preds = %35, %31
  %40 = phi i1 [ false, %31 ], [ %38, %35 ]
  br i1 %40, label %41, label %50

41:                                               ; preds = %39
  %42 = load i32, ptr %8, align 4, !tbaa !128
  %43 = trunc i32 %42 to i16
  %44 = load ptr, ptr %11, align 8, !tbaa !142
  %45 = load i64, ptr %10, align 8, !tbaa !3
  %46 = getelementptr inbounds nuw i16, ptr %44, i64 %45
  store i16 %43, ptr %46, align 2, !tbaa !100
  br label %47

47:                                               ; preds = %41
  %48 = load i64, ptr %10, align 8, !tbaa !3
  %49 = add i64 %48, 1
  store i64 %49, ptr %10, align 8, !tbaa !3
  br label %31, !llvm.loop !321

50:                                               ; preds = %39
  %51 = load i64, ptr %10, align 8, !tbaa !3
  %52 = load i64, ptr %9, align 8, !tbaa !3
  %53 = icmp ne i64 %51, %52
  br i1 %53, label %54, label %56

54:                                               ; preds = %50
  %55 = load ptr, ptr %11, align 8, !tbaa !142
  call void @CRYPTO_free(ptr noundef %55, ptr noundef @.str.2, i32 noundef 3432)
  store i32 0, ptr %4, align 4
  store i32 1, ptr %12, align 4
  br label %63

56:                                               ; preds = %50
  %57 = load ptr, ptr %6, align 8, !tbaa !134
  %58 = load ptr, ptr %57, align 8, !tbaa !142
  call void @CRYPTO_free(ptr noundef %58, ptr noundef @.str.2, i32 noundef 3436)
  %59 = load ptr, ptr %11, align 8, !tbaa !142
  %60 = load ptr, ptr %6, align 8, !tbaa !134
  store ptr %59, ptr %60, align 8, !tbaa !142
  %61 = load i64, ptr %9, align 8, !tbaa !3
  %62 = load ptr, ptr %7, align 8, !tbaa !136
  store i64 %61, ptr %62, align 8, !tbaa !3
  store i32 1, ptr %4, align 4
  store i32 1, ptr %12, align 4
  br label %63

63:                                               ; preds = %56, %54, %29, %21
  call void @llvm.lifetime.end.p0(i64 8, ptr %11) #8
  call void @llvm.lifetime.end.p0(i64 8, ptr %10) #8
  call void @llvm.lifetime.end.p0(i64 8, ptr %9) #8
  call void @llvm.lifetime.end.p0(i64 4, ptr %8) #8
  %64 = load i32, ptr %4, align 4
  ret i32 %64
}