; Function Attrs: nounwind uwtable
define range(i32 0, 2) i32 @tls1_save_u16(ptr noundef captures(none) %0, ptr noundef captures(none) %1, ptr noundef writeonly captures(none) %2) local_unnamed_addr #2 {
  %4 = getelementptr i8, ptr %0, i64 8
  %.val = load i64, ptr %4, align 8, !tbaa !249
  %5 = icmp ne i64 %.val, 0
  %6 = and i64 %.val, 1
  %.not = icmp eq i64 %6, 0
  %or.cond = and i1 %5, %.not
  br i1 %or.cond, label %7, label %28

7:                                                ; preds = %3
  %8 = lshr exact i64 %.val, 1
  %9 = tail call noalias ptr @CRYPTO_malloc(i64 noundef %.val, ptr noundef nonnull @.str.2, i32 noundef 3426) #14
  %10 = icmp eq ptr %9, null
  br i1 %10, label %28, label %.preheader

.preheader:                                       ; preds = %7
  %.promoted = load i64, ptr %4, align 8, !tbaa !249
  br label %11

11:                                               ; preds = %.preheader, %13
  %.val.i.i30 = phi i64 [ %.promoted, %.preheader ], [ %23, %13 ]
  %.01929 = phi i64 [ 0, %.preheader ], [ %25, %13 ]
  %12 = icmp ult i64 %.val.i.i30, 2
  br i1 %12, label %.critedge, label %13

13:                                               ; preds = %11
  %14 = load ptr, ptr %0, align 8, !tbaa !250
  %15 = load i8, ptr %14, align 1, !tbaa !141
  %16 = zext i8 %15 to i16
  %17 = shl nuw i16 %16, 8
  %18 = getelementptr inbounds nuw i8, ptr %14, i64 1
  %19 = load i8, ptr %18, align 1, !tbaa !141
  %20 = zext i8 %19 to i16
  %21 = or disjoint i16 %17, %20
  %22 = getelementptr inbounds nuw i8, ptr %14, i64 2
  store ptr %22, ptr %0, align 8, !tbaa !250
  %23 = add i64 %.val.i.i30, -2
  store i64 %23, ptr %4, align 8, !tbaa !249
  %24 = getelementptr inbounds nuw i16, ptr %9, i64 %.01929
  store i16 %21, ptr %24, align 2, !tbaa !93
  %25 = add nuw nsw i64 %.01929, 1
  %exitcond.not = icmp eq i64 %25, %8
  br i1 %exitcond.not, label %.critedge.thread, label %11, !llvm.loop !271

.critedge:                                        ; preds = %11
  %.not24 = icmp eq i64 %.01929, %8
  br i1 %.not24, label %.critedge.thread, label %26

26:                                               ; preds = %.critedge
  tail call void @CRYPTO_free(ptr noundef nonnull %9, ptr noundef nonnull @.str.2, i32 noundef 3432) #14
  br label %28

.critedge.thread:                                 ; preds = %13, %.critedge
  %27 = load ptr, ptr %1, align 8, !tbaa !131
  tail call void @CRYPTO_free(ptr noundef %27, ptr noundef nonnull @.str.2, i32 noundef 3436) #14
  store ptr %9, ptr %1, align 8, !tbaa !131
  store i64 %8, ptr %2, align 8, !tbaa !105
  br label %28

28:                                               ; preds = %7, %3, %.critedge.thread, %26
  %.0 = phi i32 [ 0, %26 ], [ 1, %.critedge.thread ], [ 0, %3 ], [ 0, %7 ]
  ret i32 %.0
}